target datalayout = "e-m:e-p270:32:32-p271:32:32-p272:64:64-i64:64-i128:128-f80:128-n8:16:32:64-S128"
target triple = "x86_64-pc-linux-gnu"

@lexbor_conv_int64_to_data.digits = internal global ptr @.str, align 8

; Function Attrs: nounwind uwtable
define hidden i64 @lexbor_conv_int64_to_data(i64 noundef %0, ptr noundef %1, i64 noundef %2) #0 {
  %4 = alloca i64, align 8
  %5 = alloca i64, align 8
  %6 = alloca ptr, align 8
  %7 = alloca i64, align 8
  %8 = alloca i64, align 8
  %9 = alloca i64, align 8
  %10 = alloca i64, align 8
  %11 = alloca i64, align 8
  %12 = alloca i32, align 4
  store i64 %0, ptr %5, align 8, !tbaa !11
  store ptr %1, ptr %6, align 8, !tbaa !8
  store i64 %2, ptr %7, align 8, !tbaa !11
  call void @llvm.lifetime.start.p0(i64 8, ptr %8) #3
  call void @llvm.lifetime.start.p0(i64 8, ptr %9) #3
  call void @llvm.lifetime.start.p0(i64 8, ptr %10) #3
  call void @llvm.lifetime.start.p0(i64 8, ptr %11) #3
  %13 = load i64, ptr %5, align 8, !tbaa !11
  %14 = icmp ne i64 %13, 0
  br i1 %14, label %15, label %32

15:                                               ; preds = %3
  %16 = load i64, ptr %5, align 8, !tbaa !11
  store i64 %16, ptr %8, align 8, !tbaa !11
  store i64 0, ptr %11, align 8, !tbaa !11
  store i64 0, ptr %9, align 8, !tbaa !11
  %17 = load i64, ptr %5, align 8, !tbaa !11
  %18 = icmp slt i64 %17, 0
  br i1 %18, label %19, label %22

19:                                               ; preds = %15
  store i64 1, ptr %11, align 8, !tbaa !11
  %20 = load i64, ptr %5, align 8, !tbaa !11
  %21 = sub nsw i64 0, %20
  store i64 %21, ptr %5, align 8, !tbaa !11
  store i64 1, ptr %9, align 8, !tbaa !11
  br label %22

22:                                               ; preds = %19, %15
  br label %23

23:                                               ; preds = %26, %22
  %24 = load i64, ptr %8, align 8, !tbaa !11
  %25 = icmp ne i64 %24, 0
  br i1 %25, label %26, label %31

26:                                               ; preds = %23
  %27 = load i64, ptr %11, align 8, !tbaa !11
  %28 = add i64 %27, 1
  store i64 %28, ptr %11, align 8, !tbaa !11
  %29 = load i64, ptr %8, align 8, !tbaa !11
  %30 = sdiv i64 %29, 10
  store i64 %30, ptr %8, align 8, !tbaa !11
  br label %23

31:                                               ; preds = %23
  br label %39

32:                                               ; preds = %3
  %33 = load i64, ptr %7, align 8, !tbaa !11
  %34 = icmp ugt i64 %33, 0
  br i1 %34, label %35, label %38

35:                                               ; preds = %32
  %36 = load ptr, ptr %6, align 8, !tbaa !8
  %37 = getelementptr inbounds i8, ptr %36, i64 0
  store i8 48, ptr %37, align 1, !tbaa !13
  store i64 1, ptr %4, align 8
  store i32 1, ptr %12, align 4
  br label %90

38:                                               ; preds = %32
  store i64 0, ptr %4, align 8
  store i32 1, ptr %12, align 4
  br label %90

39:                                               ; preds = %31
  %40 = load i64, ptr %7, align 8, !tbaa !11
  %41 = load i64, ptr %11, align 8, !tbaa !11
  %42 = icmp ult i64 %40, %41
  br i1 %42, label %43, label %60

43:                                               ; preds = %39
  %44 = load i64, ptr %11, align 8, !tbaa !11
  %45 = load i64, ptr %9, align 8, !tbaa !11
  %46 = add i64 %44, %45
  %47 = load i64, ptr %7, align 8, !tbaa !11
  %48 = sub i64 %46, %47
  store i64 %48, ptr %10, align 8, !tbaa !11
  br label %49

49:                                               ; preds = %53, %43
  %50 = load i64, ptr %10, align 8, !tbaa !11
  %51 = load i64, ptr %9, align 8, !tbaa !11
  %52 = icmp ne i64 %50, %51
  br i1 %52, label %53, label %58

53:                                               ; preds = %49
  %54 = load i64, ptr %10, align 8, !tbaa !11
  %55 = sub i64 %54, 1
  store i64 %55, ptr %10, align 8, !tbaa !11
  %56 = load i64, ptr %5, align 8, !tbaa !11
  %57 = sdiv i64 %56, 10
  store i64 %57, ptr %5, align 8, !tbaa !11
  br label %49

58:                                               ; preds = %49
  %59 = load i64, ptr %7, align 8, !tbaa !11
  store i64 %59, ptr %11, align 8, !tbaa !11
  br label %60

60:                                               ; preds = %58, %39
  %61 = load i64, ptr %9, align 8, !tbaa !11
  %62 = icmp ne i64 %61, 0
  br i1 %62, label %63, label %66

63:                                               ; preds = %60
  %64 = load ptr, ptr %6, align 8, !tbaa !8
  %65 = getelementptr inbounds i8, ptr %64, i64 0
  store i8 45, ptr %65, align 1, !tbaa !13
  br label %66

66:                                               ; preds = %63, %60
  %67 = load i64, ptr %11, align 8, !tbaa !11
  store i64 %67, ptr %10, align 8, !tbaa !11
  %68 = load ptr, ptr %6, align 8, !tbaa !8
  %69 = load i64, ptr %11, align 8, !tbaa !11
  %70 = getelementptr inbounds nuw i8, ptr %68, i64 %69
  store i8 0, ptr %70, align 1, !tbaa !13
  br label %71

71:                                               ; preds = %75, %66
  %72 = load i64, ptr %10, align 8, !tbaa !11
  %73 = load i64, ptr %9, align 8, !tbaa !11
  %74 = icmp ne i64 %72, %73
  br i1 %74, label %75, label %88

75:                                               ; preds = %71
  %76 = load i64, ptr %10, align 8, !tbaa !11
  %77 = sub i64 %76, 1
  store i64 %77, ptr %10, align 8, !tbaa !11
  %78 = load ptr, ptr @lexbor_conv_int64_to_data.digits, align 8, !tbaa !8
  %79 = load i64, ptr %5, align 8, !tbaa !11
  %80 = srem i64 %79, 10
  %81 = getelementptr inbounds i8, ptr %78, i64 %80
  %82 = load i8, ptr %81, align 1, !tbaa !13
  %83 = load ptr, ptr %6, align 8, !tbaa !8
  %84 = load i64, ptr %10, align 8, !tbaa !11
  %85 = getelementptr inbounds nuw i8, ptr %83, i64 %84
  store i8 %82, ptr %85, align 1, !tbaa !13
  %86 = load i64, ptr %5, align 8, !tbaa !11
  %87 = sdiv i64 %86, 10
  store i64 %87, ptr %5, align 8, !tbaa !11
  br label %71

88:                                               ; preds = %71
  %89 = load i64, ptr %11, align 8, !tbaa !11
  store i64 %89, ptr %4, align 8
  store i32 1, ptr %12, align 4
  br label %90

90:                                               ; preds = %88, %38, %35
  call void @llvm.lifetime.end.p0(i64 8, ptr %11) #3
  call void @llvm.lifetime.end.p0(i64 8, ptr %10) #3
  call void @llvm.lifetime.end.p0(i64 8, ptr %9) #3
  call void @llvm.lifetime.end.p0(i64 8, ptr %8) #3
  %91 = load i64, ptr %4, align 8
  ret i64 %91
}

; Function Attrs: nounwind uwtable
define hidden i64 @lexbor_conv_long_to_data(i64 noundef %0, ptr noundef %1, i64 noundef %2) #0 {
  %4 = alloca i64, align 8
  %5 = alloca ptr, align 8
  %6 = alloca i64, align 8
  store i64 %0, ptr %4, align 8, !tbaa !11
  store ptr %1, ptr %5, align 8, !tbaa !8
  store i64 %2, ptr %6, align 8, !tbaa !11
  %7 = load i64, ptr %4, align 8, !tbaa !11
  %8 = load ptr, ptr %5, align 8, !tbaa !8
  %9 = load i64, ptr %6, align 8, !tbaa !11
  %10 = call i64 @lexbor_conv_int64_to_data(i64 noundef %7, ptr noundef %8, i64 noundef %9)
  ret i64 %10
}