; Function Attrs: nofree norecurse nosync nounwind memory(argmem: write) uwtable
define hidden i64 @lexbor_conv_long_to_data(i64 noundef %0, ptr noundef writeonly captures(none) %1, i64 noundef %2) local_unnamed_addr #2 {
  %.not.i = icmp eq i64 %0, 0
  br i1 %.not.i, label %8, label %4

4:                                                ; preds = %3
  %.lobit.i = lshr i64 %0, 63
  br label %5

5:                                                ; preds = %5, %4
  %.150.i = phi i64 [ %.lobit.i, %4 ], [ %6, %5 ]
  %.03549.i = phi i64 [ %0, %4 ], [ %7, %5 ]
  %6 = add i64 %.150.i, 1
  %7 = sdiv i64 %.03549.i, 10
  %.03549.off.i = add i64 %.03549.i, 9
  %.not43.i = icmp ult i64 %.03549.off.i, 19
  br i1 %.not43.i, label %10, label %5

8:                                                ; preds = %3
  %.not42.i = icmp eq i64 %2, 0
  br i1 %.not42.i, label %lexbor_conv_int64_to_data.exit, label %9

9:                                                ; preds = %8
  store i8 48, ptr %1, align 1, !tbaa !4
  br label %lexbor_conv_int64_to_data.exit

10:                                               ; preds = %5
  %11 = icmp slt i64 %0, 0
  %spec.select.i = tail call i64 @llvm.abs.i64(i64 %0, i1 true)
  %12 = icmp ult i64 %2, %6
  br i1 %12, label %13, label %.loopexit48.i

13:                                               ; preds = %10
  %14 = sub i64 %.lobit.i, %2
  %15 = add i64 %6, %14
  %.not4451.i = icmp eq i64 %15, %.lobit.i
  br i1 %.not4451.i, label %.loopexit48.i, label %.lr.ph.i

.lr.ph.i:                                         ; preds = %13, %.lr.ph.i
  %.03253.i = phi i64 [ %16, %.lr.ph.i ], [ %15, %13 ]
  %.23952.i = phi i64 [ %17, %.lr.ph.i ], [ %spec.select.i, %13 ]
  %16 = add i64 %.03253.i, -1
  %17 = udiv i64 %.23952.i, 10
  %.not44.i = icmp eq i64 %16, %.lobit.i
  br i1 %.not44.i, label %.loopexit48.i, label %.lr.ph.i

.loopexit48.i:                                    ; preds = %.lr.ph.i, %13, %10
  %.138.i = phi i64 [ %spec.select.i, %10 ], [ %spec.select.i, %13 ], [ %17, %.lr.ph.i ]
  %.2.i = phi i64 [ %6, %10 ], [ %2, %13 ], [ %2, %.lr.ph.i ]
  br i1 %11, label %18, label %19

18:                                               ; preds = %.loopexit48.i
  store i8 45, ptr %1, align 1, !tbaa !4
  br label %19

19:                                               ; preds = %18, %.loopexit48.i
  %20 = getelementptr inbounds nuw i8, ptr %1, i64 %.2.i
  store i8 0, ptr %20, align 1, !tbaa !4
  %.not4654.i = icmp eq i64 %.2.i, %.lobit.i
  br i1 %.not4654.i, label %lexbor_conv_int64_to_data.exit, label %.lr.ph57.i

.lr.ph57.i:                                       ; preds = %19, %.lr.ph57.i
  %.13356.i = phi i64 [ %21, %.lr.ph57.i ], [ %.2.i, %19 ]
  %.355.i = phi i64 [ %26, %.lr.ph57.i ], [ %.138.i, %19 ]
  %21 = add i64 %.13356.i, -1
  %22 = urem i64 %.355.i, 10
  %23 = getelementptr inbounds nuw i8, ptr @.str, i64 %22
  %24 = load i8, ptr %23, align 1, !tbaa !4
  %25 = getelementptr inbounds nuw i8, ptr %1, i64 %21
  store i8 %24, ptr %25, align 1, !tbaa !4
  %26 = udiv i64 %.355.i, 10
  %.not46.i = icmp eq i64 %21, %.lobit.i
  br i1 %.not46.i, label %lexbor_conv_int64_to_data.exit, label %.lr.ph57.i

lexbor_conv_int64_to_data.exit:                   ; preds = %.lr.ph57.i, %8, %9, %19
  %.036.i = phi i64 [ 1, %9 ], [ 0, %8 ], [ %.lobit.i, %19 ], [ %.2.i, %.lr.ph57.i ]
  ret i64 %.036.i
}